target datalayout = "e-m:e-p270:32:32-p271:32:32-p272:64:64-i64:64-i128:128-f80:128-n8:16:32:64-S128"
target triple = "x86_64-pc-linux-gnu"

%struct.StaticBuffer = type { ptr, i32, i32 }

@.str = private unnamed_addr constant [3 x i8] c"rb\00", align 1

; Function Attrs: nounwind uwtable
define internal i32 @static_buffer_set_size(ptr noundef %0, i32 noundef %1, ptr noundef %2, i32 noundef %3) #0 {
  %5 = alloca ptr, align 8
  %6 = alloca i32, align 4
  %7 = alloca ptr, align 8
  %8 = alloca i32, align 4
  %9 = alloca i32, align 4
  %10 = alloca ptr, align 8
  store ptr %0, ptr %5, align 8, !tbaa !3
  store i32 %1, ptr %6, align 4, !tbaa !7
  store ptr %2, ptr %7, align 8, !tbaa !3
  store i32 %3, ptr %8, align 4, !tbaa !7
  call void @llvm.lifetime.start.p0(i64 4, ptr %9) #9
  store i32 0, ptr %9, align 4, !tbaa !7
  %11 = load i32, ptr %6, align 4, !tbaa !7
  %12 = load ptr, ptr %5, align 8, !tbaa !3
  %13 = getelementptr inbounds nuw %struct.StaticBuffer, ptr %12, i32 0, i32 1
  %14 = load i32, ptr %13, align 8, !tbaa !231
  %15 = icmp ugt i32 %11, %14
  br i1 %15, label %16, label %33

16:                                               ; preds = %4
  call void @llvm.lifetime.start.p0(i64 8, ptr %10) #9
  %17 = load i32, ptr %6, align 4, !tbaa !7
  %18 = zext i32 %17 to i64
  %19 = call ptr @wolfSSL_Malloc(i64 noundef %18)
  store ptr %19, ptr %10, align 8, !tbaa !21
  %20 = load ptr, ptr %10, align 8, !tbaa !21
  %21 = icmp eq ptr %20, null
  br i1 %21, label %22, label %23

22:                                               ; preds = %16
  store i32 -125, ptr %9, align 4, !tbaa !7
  br label %32

23:                                               ; preds = %16
  %24 = load ptr, ptr %10, align 8, !tbaa !21
  %25 = load ptr, ptr %5, align 8, !tbaa !3
  %26 = getelementptr inbounds nuw %struct.StaticBuffer, ptr %25, i32 0, i32 0
  store ptr %24, ptr %26, align 8, !tbaa !225
  %27 = load i32, ptr %6, align 4, !tbaa !7
  %28 = load ptr, ptr %5, align 8, !tbaa !3
  %29 = getelementptr inbounds nuw %struct.StaticBuffer, ptr %28, i32 0, i32 1
  store i32 %27, ptr %29, align 8, !tbaa !231
  %30 = load ptr, ptr %5, align 8, !tbaa !3
  %31 = getelementptr inbounds nuw %struct.StaticBuffer, ptr %30, i32 0, i32 2
  store i32 1, ptr %31, align 4, !tbaa !232
  br label %32

32:                                               ; preds = %23, %22
  call void @llvm.lifetime.end.p0(i64 8, ptr %10) #9
  br label %33

33:                                               ; preds = %32, %4
  %34 = load i32, ptr %9, align 4, !tbaa !7
  call void @llvm.lifetime.end.p0(i64 4, ptr %9) #9
  ret i32 %34
}

; Function Attrs: nounwind uwtable
define internal i32 @wolfssl_file_len(ptr noundef %0, ptr noundef %1) #0 {
  %3 = alloca ptr, align 8
  %4 = alloca ptr, align 8
  %5 = alloca i32, align 4
  %6 = alloca i64, align 8
  %7 = alloca i64, align 8
  store ptr %0, ptr %3, align 8, !tbaa !49
  store ptr %1, ptr %4, align 8, !tbaa !51
  call void @llvm.lifetime.start.p0(i64 4, ptr %5) #9
  store i32 0, ptr %5, align 4, !tbaa !7
  call void @llvm.lifetime.start.p0(i64 8, ptr %6) #9
  store i64 0, ptr %6, align 8, !tbaa !22
  call void @llvm.lifetime.start.p0(i64 8, ptr %7) #9
  store i64 0, ptr %7, align 8, !tbaa !22
  %8 = load ptr, ptr %3, align 8, !tbaa !49
  %9 = icmp eq ptr %8, null
  br i1 %9, label %10, label %11

10:                                               ; preds = %2
  store i32 -463, ptr %5, align 4, !tbaa !7
  br label %11

11:                                               ; preds = %10, %2
  %12 = load i32, ptr %5, align 4, !tbaa !7
  %13 = icmp eq i32 %12, 0
  br i1 %13, label %14, label %21

14:                                               ; preds = %11
  %15 = load ptr, ptr %3, align 8, !tbaa !49
  %16 = call i64 @ftell(ptr noundef %15)
  store i64 %16, ptr %7, align 8, !tbaa !22
  %17 = load i64, ptr %7, align 8, !tbaa !22
  %18 = icmp slt i64 %17, 0
  br i1 %18, label %19, label %20

19:                                               ; preds = %14
  store i32 -463, ptr %5, align 4, !tbaa !7
  br label %20

20:                                               ; preds = %19, %14
  br label %21

21:                                               ; preds = %20, %11
  %22 = load i32, ptr %5, align 4, !tbaa !7
  %23 = icmp eq i32 %22, 0
  br i1 %23, label %24, label %29

24:                                               ; preds = %21
  %25 = load ptr, ptr %3, align 8, !tbaa !49
  %26 = call i32 @fseek(ptr noundef %25, i64 noundef 0, i32 noundef 2)
  %27 = icmp ne i32 %26, 0
  br i1 %27, label %28, label %29

28:                                               ; preds = %24
  store i32 -463, ptr %5, align 4, !tbaa !7
  br label %29

29:                                               ; preds = %28, %24, %21
  %30 = load i32, ptr %5, align 4, !tbaa !7
  %31 = icmp eq i32 %30, 0
  br i1 %31, label %32, label %41

32:                                               ; preds = %29
  %33 = load ptr, ptr %3, align 8, !tbaa !49
  %34 = call i64 @ftell(ptr noundef %33)
  %35 = load i64, ptr %7, align 8, !tbaa !22
  %36 = sub nsw i64 %34, %35
  store i64 %36, ptr %6, align 8, !tbaa !22
  %37 = load i64, ptr %6, align 8, !tbaa !22
  %38 = icmp slt i64 %37, 0
  br i1 %38, label %39, label %40

39:                                               ; preds = %32
  store i32 -463, ptr %5, align 4, !tbaa !7
  br label %40

40:                                               ; preds = %39, %32
  br label %41

41:                                               ; preds = %40, %29
  %42 = load i32, ptr %5, align 4, !tbaa !7
  %43 = icmp eq i32 %42, 0
  br i1 %43, label %44, label %50

44:                                               ; preds = %41
  %45 = load ptr, ptr %3, align 8, !tbaa !49
  %46 = load i64, ptr %7, align 8, !tbaa !22
  %47 = call i32 @fseek(ptr noundef %45, i64 noundef %46, i32 noundef 0)
  %48 = icmp ne i32 %47, 0
  br i1 %48, label %49, label %50

49:                                               ; preds = %44
  store i32 -463, ptr %5, align 4, !tbaa !7
  br label %50

50:                                               ; preds = %49, %44, %41
  %51 = load i32, ptr %5, align 4, !tbaa !7
  %52 = icmp eq i32 %51, 0
  br i1 %52, label %53, label %60

53:                                               ; preds = %50
  %54 = load i64, ptr %6, align 8, !tbaa !22
  %55 = icmp sgt i64 %54, 4194304
  br i1 %55, label %59, label %56

56:                                               ; preds = %53
  %57 = load i64, ptr %6, align 8, !tbaa !22
  %58 = icmp sle i64 %57, 0
  br i1 %58, label %59, label %60

59:                                               ; preds = %56, %53
  store i32 -463, ptr %5, align 4, !tbaa !7
  br label %60

60:                                               ; preds = %59, %56, %50
  %61 = load i32, ptr %5, align 4, !tbaa !7
  %62 = icmp eq i32 %61, 0
  br i1 %62, label %63, label %66

63:                                               ; preds = %60
  %64 = load i64, ptr %6, align 8, !tbaa !22
  %65 = load ptr, ptr %4, align 8, !tbaa !51
  store i64 %64, ptr %65, align 8, !tbaa !22
  br label %66

66:                                               ; preds = %63, %60
  %67 = load i32, ptr %5, align 4, !tbaa !7
  call void @llvm.lifetime.end.p0(i64 8, ptr %7) #9
  call void @llvm.lifetime.end.p0(i64 8, ptr %6) #9
  call void @llvm.lifetime.end.p0(i64 4, ptr %5) #9
  ret i32 %67
}

; Function Attrs: nounwind uwtable
define internal i32 @wolfssl_read_file_static(ptr noundef %0, ptr noundef %1, ptr noundef %2, i32 noundef %3, ptr noundef %4) #0 {
  %6 = alloca ptr, align 8
  %7 = alloca ptr, align 8
  %8 = alloca ptr, align 8
  %9 = alloca i32, align 4
  %10 = alloca ptr, align 8
  %11 = alloca i32, align 4
  %12 = alloca ptr, align 8
  %13 = alloca i64, align 8
  store ptr %0, ptr %6, align 8, !tbaa !21
  store ptr %1, ptr %7, align 8, !tbaa !3
  store ptr %2, ptr %8, align 8, !tbaa !3
  store i32 %3, ptr %9, align 4, !tbaa !7
  store ptr %4, ptr %10, align 8, !tbaa !51
  call void @llvm.lifetime.start.p0(i64 4, ptr %11) #9
  store i32 0, ptr %11, align 4, !tbaa !7
  call void @llvm.lifetime.start.p0(i64 8, ptr %12) #9
  store ptr null, ptr %12, align 8, !tbaa !49
  call void @llvm.lifetime.start.p0(i64 8, ptr %13) #9
  store i64 0, ptr %13, align 8, !tbaa !22
  %14 = load ptr, ptr %6, align 8, !tbaa !21
  %15 = icmp eq ptr %14, null
  br i1 %15, label %16, label %17

16:                                               ; preds = %5
  store i32 -463, ptr %11, align 4, !tbaa !7
  br label %17

17:                                               ; preds = %16, %5
  %18 = load i32, ptr %11, align 4, !tbaa !7
  %19 = icmp eq i32 %18, 0
  br i1 %19, label %20, label %25

20:                                               ; preds = %17
  %21 = load ptr, ptr %6, align 8, !tbaa !21
  %22 = call noalias ptr @fopen(ptr noundef %21, ptr noundef @.str)
  store ptr %22, ptr %12, align 8, !tbaa !49
  %23 = icmp eq ptr %22, null
  br i1 %23, label %24, label %25

24:                                               ; preds = %20
  store i32 -463, ptr %11, align 4, !tbaa !7
  br label %25

25:                                               ; preds = %24, %20, %17
  %26 = load i32, ptr %11, align 4, !tbaa !7
  %27 = icmp eq i32 %26, 0
  br i1 %27, label %28, label %31

28:                                               ; preds = %25
  %29 = load ptr, ptr %12, align 8, !tbaa !49
  %30 = call i32 @wolfssl_file_len(ptr noundef %29, ptr noundef %13)
  store i32 %30, ptr %11, align 4, !tbaa !7
  br label %31

31:                                               ; preds = %28, %25
  %32 = load i32, ptr %11, align 4, !tbaa !7
  %33 = icmp eq i32 %32, 0
  br i1 %33, label %34, label %41

34:                                               ; preds = %31
  %35 = load ptr, ptr %7, align 8, !tbaa !3
  %36 = load i64, ptr %13, align 8, !tbaa !22
  %37 = trunc i64 %36 to i32
  %38 = load ptr, ptr %8, align 8, !tbaa !3
  %39 = load i32, ptr %9, align 4, !tbaa !7
  %40 = call i32 @static_buffer_set_size(ptr noundef %35, i32 noundef %37, ptr noundef %38, i32 noundef %39)
  store i32 %40, ptr %11, align 4, !tbaa !7
  br label %41

41:                                               ; preds = %34, %31
  %42 = load i32, ptr %11, align 4, !tbaa !7
  %43 = icmp eq i32 %42, 0
  br i1 %43, label %44, label %54

44:                                               ; preds = %41
  %45 = load ptr, ptr %7, align 8, !tbaa !3
  %46 = getelementptr inbounds nuw %struct.StaticBuffer, ptr %45, i32 0, i32 0
  %47 = load ptr, ptr %46, align 8, !tbaa !225
  %48 = load i64, ptr %13, align 8, !tbaa !22
  %49 = load ptr, ptr %12, align 8, !tbaa !49
  %50 = call i64 @fread(ptr noundef %47, i64 noundef 1, i64 noundef %48, ptr noundef %49)
  %51 = load i64, ptr %13, align 8, !tbaa !22
  %52 = icmp ne i64 %50, %51
  br i1 %52, label %53, label %54

53:                                               ; preds = %44
  store i32 -463, ptr %11, align 4, !tbaa !7
  br label %54

54:                                               ; preds = %53, %44, %41
  %55 = load ptr, ptr %12, align 8, !tbaa !49
  %56 = icmp ne ptr %55, null
  br i1 %56, label %57, label %60

57:                                               ; preds = %54
  %58 = load ptr, ptr %12, align 8, !tbaa !49
  %59 = call i32 @fclose(ptr noundef %58)
  br label %60

60:                                               ; preds = %57, %54
  %61 = load i64, ptr %13, align 8, !tbaa !22
  %62 = load ptr, ptr %10, align 8, !tbaa !51
  store i64 %61, ptr %62, align 8, !tbaa !22
  %63 = load i32, ptr %11, align 4, !tbaa !7
  call void @llvm.lifetime.end.p0(i64 8, ptr %13) #9
  call void @llvm.lifetime.end.p0(i64 8, ptr %12) #9
  call void @llvm.lifetime.end.p0(i64 4, ptr %11) #9
  ret i32 %63
}