; Function Attrs: nounwind uwtable
define internal fastcc range(i32 -463, 1) i32 @wolfssl_read_file_static(ptr noundef readonly captures(address_is_null) %0, ptr noundef nonnull captures(none) %1, ptr noundef nonnull writeonly captures(none) initializes((0, 8)) %2) unnamed_addr #0 {
  %.not = icmp eq ptr %0, null
  br i1 %.not, label %static_buffer_set_size.exit, label %4

4:                                                ; preds = %3
  %5 = tail call noalias ptr @fopen(ptr noundef nonnull %0, ptr noundef nonnull @.str)
  %6 = icmp eq ptr %5, null
  br i1 %6, label %static_buffer_set_size.exit, label %7

7:                                                ; preds = %4
  %8 = tail call i64 @ftell(ptr noundef nonnull %5)
  %9 = icmp slt i64 %8, 0
  br i1 %9, label %static_buffer_set_size.exit.thread30, label %.thread.i

.thread.i:                                        ; preds = %7
  %10 = tail call i32 @fseek(ptr noundef nonnull %5, i64 noundef 0, i32 noundef 2)
  %.not26.i = icmp eq i32 %10, 0
  br i1 %.not26.i, label %11, label %static_buffer_set_size.exit.thread30

11:                                               ; preds = %.thread.i
  %12 = tail call i64 @ftell(ptr noundef nonnull %5)
  %13 = sub nsw i64 %12, %8
  %14 = icmp slt i64 %13, 0
  br i1 %14, label %static_buffer_set_size.exit.thread30, label %15

15:                                               ; preds = %11
  %16 = tail call i32 @fseek(ptr noundef nonnull %5, i64 noundef %8, i32 noundef 0)
  %.not27.i = icmp ne i32 %16, 0
  %17 = add nsw i64 %13, -4194305
  %or.cond.i = icmp ult i64 %17, -4194304
  %or.cond62.i = select i1 %.not27.i, i1 true, i1 %or.cond.i
  br i1 %or.cond62.i, label %static_buffer_set_size.exit.thread30, label %wolfssl_file_len.exit

wolfssl_file_len.exit:                            ; preds = %15
  %18 = trunc nuw i64 %13 to i32
  %19 = getelementptr inbounds nuw i8, ptr %1, i64 8
  %20 = load i32, ptr %19, align 8, !tbaa !216
  %21 = icmp ult i32 %20, %18
  br i1 %21, label %22, label %wolfssl_file_len.exit._crit_edge

wolfssl_file_len.exit._crit_edge:                 ; preds = %wolfssl_file_len.exit
  %.pre = load ptr, ptr %1, align 8, !tbaa !214
  br label %27

22:                                               ; preds = %wolfssl_file_len.exit
  %23 = tail call ptr @wolfSSL_Malloc(i64 noundef %13) #22
  %24 = icmp eq ptr %23, null
  br i1 %24, label %static_buffer_set_size.exit.thread30, label %25

25:                                               ; preds = %22
  store ptr %23, ptr %1, align 8, !tbaa !214
  store i32 %18, ptr %19, align 8, !tbaa !216
  %26 = getelementptr inbounds nuw i8, ptr %1, i64 12
  store i32 1, ptr %26, align 4, !tbaa !217
  br label %27

27:                                               ; preds = %wolfssl_file_len.exit._crit_edge, %25
  %28 = phi ptr [ %.pre, %wolfssl_file_len.exit._crit_edge ], [ %23, %25 ]
  %29 = tail call i64 @fread(ptr noundef %28, i64 noundef 1, i64 noundef %13, ptr noundef nonnull %5)
  %.not18 = icmp eq i64 %29, %13
  %spec.select22 = select i1 %.not18, i32 0, i32 -463
  br label %static_buffer_set_size.exit.thread30

static_buffer_set_size.exit.thread30:             ; preds = %7, %11, %15, %.thread.i, %22, %27
  %.438 = phi i32 [ -125, %22 ], [ %spec.select22, %27 ], [ -463, %.thread.i ], [ -463, %15 ], [ -463, %11 ], [ -463, %7 ]
  %.15212636 = phi i64 [ %13, %22 ], [ %13, %27 ], [ 0, %.thread.i ], [ 0, %15 ], [ 0, %11 ], [ 0, %7 ]
  %30 = tail call i32 @fclose(ptr noundef nonnull %5)
  br label %static_buffer_set_size.exit

static_buffer_set_size.exit:                      ; preds = %3, %4, %static_buffer_set_size.exit.thread30
  %.439 = phi i32 [ %.438, %static_buffer_set_size.exit.thread30 ], [ -463, %4 ], [ -463, %3 ]
  %.15212637 = phi i64 [ %.15212636, %static_buffer_set_size.exit.thread30 ], [ 0, %4 ], [ 0, %3 ]
  store i64 %.15212637, ptr %2, align 8, !tbaa !27
  ret i32 %.439
}